__ZN20IOACPIPlatformDevice10gMetaClassE
__ZN20IOACPIPlatformDevice10superClassE
__ZN20IOACPIPlatformDevice12getResourcesEv
__ZN20IOACPIPlatformDevice13setDeviceTypeEj
__ZN20IOACPIPlatformDevice13setPowerStateEmP9IOService
__ZN20IOACPIPlatformDevice14attachToParentEP15IORegistryEntryPK15IORegistryPlane
__ZN20IOACPIPlatformDevice14evaluateObjectEPK8OSSymbolPP8OSObjectS5_jj
__ZN20IOACPIPlatformDevice14evaluateObjectEPKcPP8OSObjectS4_jj
__ZN20IOACPIPlatformDevice14validateObjectEPK8OSSymbol
__ZN20IOACPIPlatformDevice14validateObjectEPKc
__ZN20IOACPIPlatformDevice15evaluateIntegerEPK8OSSymbolPjPP8OSObjectjj
__ZN20IOACPIPlatformDevice15evaluateIntegerEPK8OSSymbolPyPP8OSObjectjj
__ZN20IOACPIPlatformDevice15evaluateIntegerEPKcPjPP8OSObjectjj
__ZN20IOACPIPlatformDevice15evaluateIntegerEPKcPyPP8OSObjectjj
__ZN20IOACPIPlatformDevice16detachFromParentEP15IORegistryEntryPK15IORegistryPlane
__ZN20IOACPIPlatformDevice16readAddressSpaceEPyj13IOACPIAddressjjj
__ZN20IOACPIPlatformDevice17acquireGlobalLockEPjPK13mach_timespec
__ZN20IOACPIPlatformDevice17releaseGlobalLockEj
__ZN20IOACPIPlatformDevice17writeAddressSpaceEyj13IOACPIAddressjjj
__ZN20IOACPIPlatformDevice22installInterruptForGPEEjPvj
__ZN20IOACPIPlatformDevice23initACPIPowerManagementEP9IOService
__ZN20IOACPIPlatformDevice23stopACPIPowerManagementEP9IOService
__ZN20IOACPIPlatformDevice27registerAddressSpaceHandlerEjPFij13IOACPIAddressPyjjPvES2_j
__ZN20IOACPIPlatformDevice28setACPIPowerManagementEnableEbjj
__ZN20IOACPIPlatformDevice29installInterruptForFixedEventEj
__ZN20IOACPIPlatformDevice29setSystemWakeCapabilityEnableEb
__ZN20IOACPIPlatformDevice29unregisterAddressSpaceHandlerEjPFij13IOACPIAddressPyjjPvEj
__ZN20IOACPIPlatformDevice30_RESERVEDIOACPIPlatformDevice0Ev
__ZN20IOACPIPlatformDevice30_RESERVEDIOACPIPlatformDevice1Ev
__ZN20IOACPIPlatformDevice30_RESERVEDIOACPIPlatformDevice2Ev
__ZN20IOACPIPlatformDevice30_RESERVEDIOACPIPlatformDevice3Ev
__ZN20IOACPIPlatformDevice30_RESERVEDIOACPIPlatformDevice4Ev
__ZN20IOACPIPlatformDevice30_RESERVEDIOACPIPlatformDevice5Ev
__ZN20IOACPIPlatformDevice30_RESERVEDIOACPIPlatformDevice6Ev
__ZN20IOACPIPlatformDevice30_RESERVEDIOACPIPlatformDevice7Ev
__ZN20IOACPIPlatformDevice30_RESERVEDIOACPIPlatformDevice8Ev
__ZN20IOACPIPlatformDevice30_RESERVEDIOACPIPlatformDevice9Ev
__ZN20IOACPIPlatformDevice31_RESERVEDIOACPIPlatformDevice10Ev
__ZN20IOACPIPlatformDevice31_RESERVEDIOACPIPlatformDevice11Ev
__ZN20IOACPIPlatformDevice31_RESERVEDIOACPIPlatformDevice12Ev
__ZN20IOACPIPlatformDevice31_RESERVEDIOACPIPlatformDevice13Ev
__ZN20IOACPIPlatformDevice31_RESERVEDIOACPIPlatformDevice14Ev
__ZN20IOACPIPlatformDevice31_RESERVEDIOACPIPlatformDevice15Ev
__ZN20IOACPIPlatformDevice31_RESERVEDIOACPIPlatformDevice16Ev
__ZN20IOACPIPlatformDevice31_RESERVEDIOACPIPlatformDevice17Ev
__ZN20IOACPIPlatformDevice31_RESERVEDIOACPIPlatformDevice18Ev
__ZN20IOACPIPlatformDevice31_RESERVEDIOACPIPlatformDevice19Ev
__ZN20IOACPIPlatformDevice31_RESERVEDIOACPIPlatformDevice20Ev
__ZN20IOACPIPlatformDevice31_RESERVEDIOACPIPlatformDevice21Ev
__ZN20IOACPIPlatformDevice31_RESERVEDIOACPIPlatformDevice22Ev
__ZN20IOACPIPlatformDevice31_RESERVEDIOACPIPlatformDevice23Ev
__ZN20IOACPIPlatformDevice31_RESERVEDIOACPIPlatformDevice24Ev
__ZN20IOACPIPlatformDevice31_RESERVEDIOACPIPlatformDevice25Ev
__ZN20IOACPIPlatformDevice31_RESERVEDIOACPIPlatformDevice26Ev
__ZN20IOACPIPlatformDevice31_RESERVEDIOACPIPlatformDevice27Ev
__ZN20IOACPIPlatformDevice31_RESERVEDIOACPIPlatformDevice28Ev
__ZN20IOACPIPlatformDevice31_RESERVEDIOACPIPlatformDevice29Ev
__ZN20IOACPIPlatformDevice31_RESERVEDIOACPIPlatformDevice30Ev
__ZN20IOACPIPlatformDevice31_RESERVEDIOACPIPlatformDevice31Ev
__ZN20IOACPIPlatformDevice4freeEv
__ZN20IOACPIPlatformDevice4initEP9IOServicePvP12OSDictionary
__ZN20IOACPIPlatformDevice7ioRead8EtP11IOMemoryMap
__ZN20IOACPIPlatformDevice8ioRead16EtP11IOMemoryMap
__ZN20IOACPIPlatformDevice8ioRead32EtP11IOMemoryMap
__ZN20IOACPIPlatformDevice8ioWrite8EthP11IOMemoryMap
__ZN20IOACPIPlatformDevice9MetaClassC1Ev
__ZN20IOACPIPlatformDevice9MetaClassC2Ev
__ZN20IOACPIPlatformDevice9ioWrite16EttP11IOMemoryMap
__ZN20IOACPIPlatformDevice9ioWrite32EtjP11IOMemoryMap
__ZN20IOACPIPlatformDevice9metaClassE
__ZN20IOACPIPlatformDeviceC1EPK11OSMetaClass
__ZN20IOACPIPlatformDeviceC1Ev
__ZN20IOACPIPlatformDeviceC2EPK11OSMetaClass
__ZN20IOACPIPlatformDeviceC2Ev
__ZN20IOACPIPlatformDeviceD0Ev
__ZN20IOACPIPlatformDeviceD1Ev
__ZN20IOACPIPlatformDeviceD2Ev
__ZN20IOACPIPlatformDevicedlEPvm
__ZN20IOACPIPlatformDevicenwEm
__ZNK20IOACPIPlatformDevice11compareNameEP8OSStringPS1_
__ZNK20IOACPIPlatformDevice12getMetaClassEv
__ZNK20IOACPIPlatformDevice13getDeviceTypeEv
__ZNK20IOACPIPlatformDevice15getDeviceHandleEv
__ZNK20IOACPIPlatformDevice15getDeviceStatusEv
__ZNK20IOACPIPlatformDevice16getACPITableDataEPKcj
__ZNK20IOACPIPlatformDevice16getPathComponentEPcPiPK15IORegistryPlane
__ZNK20IOACPIPlatformDevice23hasSystemWakeCapabilityEv
__ZNK20IOACPIPlatformDevice24hasACPIPowerStateSupportEj
__ZNK20IOACPIPlatformDevice9MetaClass5allocEv
__ZTV20IOACPIPlatformDevice
__ZTVN20IOACPIPlatformDevice9MetaClassE
_gIOACPIPlane
